(lp0
cnumpy.core.multiarray
scalar
p1
(cnumpy
dtype
p2
(S'f8'
p3
I0
I1
tp4
Rp5
(I3
S'<'
p6
NNNI-1
I-1
I0
tp7
bS'\xb6P@\xb7\xe4\xe4\xe8?'
p8
tp9
Rp10
ag1
(g5
S'B\xe4\x81\xcb\xc7$\xe5?'
p11
tp12
Rp13
a.